; ModuleID = '2/843.c'
source_filename = "2/843.c"
target datalayout = "e-m:e-p270:32:32-p271:32:32-p272:64:64-i64:64-f80:128-n8:16:32:64-S128"
target triple = "x86_64-pc-linux-gnu"

@.str = private unnamed_addr constant [3 x i8] c"%d\00", align 1
@.str.1 = private unnamed_addr constant [3 x i8] c"%s\00", align 1
@.str.2 = private unnamed_addr constant [4 x i8] c"%c\0A\00", align 1
@.str.3 = private unnamed_addr constant [4 x i8] c"%d\0A\00", align 1

; Function Attrs: noinline nounwind uwtable
define dso_local i32 @main() #0 {
  %1 = alloca i32, align 4
  %2 = alloca [999 x i32], align 16
  %3 = alloca [999 x [26 x i8]], align 16
  %4 = alloca [125 x i32], align 16
  %5 = alloca i32, align 4
  %6 = alloca i32, align 4
  %7 = alloca i32, align 4
  %8 = alloca i32, align 4
  %9 = alloca i32, align 4
  store i32 0, i32* %1, align 4
  %10 = bitcast [125 x i32]* %4 to i8*
  call void @llvm.memset.p0i8.i64(i8* align 16 %10, i8 0, i64 500, i1 false)
  %11 = call i32 (i8*, ...) @__isoc99_scanf(i8* getelementptr inbounds ([3 x i8], [3 x i8]* @.str, i64 0, i64 0), i32* %5)
  store i32 0, i32* %6, align 4
  br label %12

12:                                               ; preds = %63, %0
  %13 = load i32, i32* %6, align 4
  %14 = load i32, i32* %5, align 4
  %15 = sub nsw i32 %14, 1
  %16 = icmp sle i32 %13, %15
  br i1 %16, label %17, label %66

17:                                               ; preds = %12
  %18 = load i32, i32* %6, align 4
  %19 = sext i32 %18 to i64
  %20 = getelementptr inbounds [999 x i32], [999 x i32]* %2, i64 0, i64 %19
  %21 = call i32 (i8*, ...) @__isoc99_scanf(i8* getelementptr inbounds ([3 x i8], [3 x i8]* @.str, i64 0, i64 0), i32* %20)
  %22 = load i32, i32* %6, align 4
  %23 = sext i32 %22 to i64
  %24 = getelementptr inbounds [999 x [26 x i8]], [999 x [26 x i8]]* %3, i64 0, i64 %23
  %25 = getelementptr inbounds [26 x i8], [26 x i8]* %24, i64 0, i64 0
  %26 = call i32 (i8*, ...) @__isoc99_scanf(i8* getelementptr inbounds ([3 x i8], [3 x i8]* @.str.1, i64 0, i64 0), i8* %25)
  %27 = load i32, i32* %6, align 4
  %28 = sext i32 %27 to i64
  %29 = getelementptr inbounds [999 x [26 x i8]], [999 x [26 x i8]]* %3, i64 0, i64 %28
  %30 = getelementptr inbounds [26 x i8], [26 x i8]* %29, i64 0, i64 0
  %31 = call i64 @strlen(i8* %30) #4
  %32 = sub i64 %31, 1
  %33 = trunc i64 %32 to i32
  store i32 %33, i32* %9, align 4
  store i32 0, i32* %7, align 4
  br label %34

34:                                               ; preds = %59, %17
  %35 = load i32, i32* %7, align 4
  %36 = load i32, i32* %9, align 4
  %37 = icmp sle i32 %35, %36
  br i1 %37, label %38, label %62

38:                                               ; preds = %34
  %39 = load i32, i32* %6, align 4
  %40 = sext i32 %39 to i64
  %41 = getelementptr inbounds [999 x [26 x i8]], [999 x [26 x i8]]* %3, i64 0, i64 %40
  %42 = load i32, i32* %7, align 4
  %43 = sext i32 %42 to i64
  %44 = getelementptr inbounds [26 x i8], [26 x i8]* %41, i64 0, i64 %43
  %45 = load i8, i8* %44, align 1
  %46 = sext i8 %45 to i64
  %47 = getelementptr inbounds [125 x i32], [125 x i32]* %4, i64 0, i64 %46
  %48 = load i32, i32* %47, align 4
  %49 = add nsw i32 %48, 1
  %50 = load i32, i32* %6, align 4
  %51 = sext i32 %50 to i64
  %52 = getelementptr inbounds [999 x [26 x i8]], [999 x [26 x i8]]* %3, i64 0, i64 %51
  %53 = load i32, i32* %7, align 4
  %54 = sext i32 %53 to i64
  %55 = getelementptr inbounds [26 x i8], [26 x i8]* %52, i64 0, i64 %54
  %56 = load i8, i8* %55, align 1
  %57 = sext i8 %56 to i64
  %58 = getelementptr inbounds [125 x i32], [125 x i32]* %4, i64 0, i64 %57
  store i32 %49, i32* %58, align 4
  br label %59

59:                                               ; preds = %38
  %60 = load i32, i32* %7, align 4
  %61 = add nsw i32 %60, 1
  store i32 %61, i32* %7, align 4
  br label %34

62:                                               ; preds = %34
  br label %63

63:                                               ; preds = %62
  %64 = load i32, i32* %6, align 4
  %65 = add nsw i32 %64, 1
  store i32 %65, i32* %6, align 4
  br label %12

66:                                               ; preds = %12
  store i32 65, i32* %8, align 4
  store i32 66, i32* %6, align 4
  br label %67

67:                                               ; preds = %83, %66
  %68 = load i32, i32* %6, align 4
  %69 = icmp sle i32 %68, 90
  br i1 %69, label %70, label %86

70:                                               ; preds = %67
  %71 = load i32, i32* %6, align 4
  %72 = sext i32 %71 to i64
  %73 = getelementptr inbounds [125 x i32], [125 x i32]* %4, i64 0, i64 %72
  %74 = load i32, i32* %73, align 4
  %75 = load i32, i32* %8, align 4
  %76 = sext i32 %75 to i64
  %77 = getelementptr inbounds [125 x i32], [125 x i32]* %4, i64 0, i64 %76
  %78 = load i32, i32* %77, align 4
  %79 = icmp sgt i32 %74, %78
  br i1 %79, label %80, label %82

80:                                               ; preds = %70
  %81 = load i32, i32* %6, align 4
  store i32 %81, i32* %8, align 4
  br label %82

82:                                               ; preds = %80, %70
  br label %83

83:                                               ; preds = %82
  %84 = load i32, i32* %6, align 4
  %85 = add nsw i32 %84, 1
  store i32 %85, i32* %6, align 4
  br label %67

86:                                               ; preds = %67
  %87 = load i32, i32* %8, align 4
  %88 = call i32 (i8*, ...) @printf(i8* getelementptr inbounds ([4 x i8], [4 x i8]* @.str.2, i64 0, i64 0), i32 %87)
  %89 = load i32, i32* %8, align 4
  %90 = sext i32 %89 to i64
  %91 = getelementptr inbounds [125 x i32], [125 x i32]* %4, i64 0, i64 %90
  %92 = load i32, i32* %91, align 4
  %93 = call i32 (i8*, ...) @printf(i8* getelementptr inbounds ([4 x i8], [4 x i8]* @.str.3, i64 0, i64 0), i32 %92)
  store i32 0, i32* %6, align 4
  br label %94

94:                                               ; preds = %133, %86
  %95 = load i32, i32* %6, align 4
  %96 = load i32, i32* %5, align 4
  %97 = sub nsw i32 %96, 1
  %98 = icmp sle i32 %95, %97
  br i1 %98, label %99, label %136

99:                                               ; preds = %94
  %100 = load i32, i32* %6, align 4
  %101 = sext i32 %100 to i64
  %102 = getelementptr inbounds [999 x [26 x i8]], [999 x [26 x i8]]* %3, i64 0, i64 %101
  %103 = getelementptr inbounds [26 x i8], [26 x i8]* %102, i64 0, i64 0
  %104 = call i64 @strlen(i8* %103) #4
  %105 = sub i64 %104, 1
  %106 = trunc i64 %105 to i32
  store i32 %106, i32* %9, align 4
  store i32 0, i32* %7, align 4
  br label %107

107:                                              ; preds = %129, %99
  %108 = load i32, i32* %7, align 4
  %109 = load i32, i32* %9, align 4
  %110 = icmp sle i32 %108, %109
  br i1 %110, label %111, label %132

111:                                              ; preds = %107
  %112 = load i32, i32* %6, align 4
  %113 = sext i32 %112 to i64
  %114 = getelementptr inbounds [999 x [26 x i8]], [999 x [26 x i8]]* %3, i64 0, i64 %113
  %115 = load i32, i32* %7, align 4
  %116 = sext i32 %115 to i64
  %117 = getelementptr inbounds [26 x i8], [26 x i8]* %114, i64 0, i64 %116
  %118 = load i8, i8* %117, align 1
  %119 = sext i8 %118 to i32
  %120 = load i32, i32* %8, align 4
  %121 = icmp eq i32 %119, %120
  br i1 %121, label %122, label %128

122:                                              ; preds = %111
  %123 = load i32, i32* %6, align 4
  %124 = sext i32 %123 to i64
  %125 = getelementptr inbounds [999 x i32], [999 x i32]* %2, i64 0, i64 %124
  %126 = load i32, i32* %125, align 4
  %127 = call i32 (i8*, ...) @printf(i8* getelementptr inbounds ([4 x i8], [4 x i8]* @.str.3, i64 0, i64 0), i32 %126)
  br label %132

128:                                              ; preds = %111
  br label %129

129:                                              ; preds = %128
  %130 = load i32, i32* %7, align 4
  %131 = add nsw i32 %130, 1
  store i32 %131, i32* %7, align 4
  br label %107

132:                                              ; preds = %122, %107
  br label %133

133:                                              ; preds = %132
  %134 = load i32, i32* %6, align 4
  %135 = add nsw i32 %134, 1
  store i32 %135, i32* %6, align 4
  br label %94

136:                                              ; preds = %94
  ret i32 0
}

; Function Attrs: argmemonly nounwind willreturn
declare void @llvm.memset.p0i8.i64(i8* nocapture writeonly, i8, i64, i1 immarg) #1

declare dso_local i32 @__isoc99_scanf(i8*, ...) #2

; Function Attrs: nounwind readonly
declare dso_local i64 @strlen(i8*) #3

declare dso_local i32 @printf(i8*, ...) #2


!llvm.module.flags = !{!0}
!llvm.ident = !{!1}

!0 = !{i32 1, !"wchar_size", i32 4}
!1 = !{!"clang version 10.0.0-4ubuntu1 "}
