; ModuleID = 'source-C-CXX/1/843.c'
source_filename = "source-C-CXX/1/843.c"
target datalayout = "e-m:e-p270:32:32-p271:32:32-p272:64:64-i64:64-f80:128-n8:16:32:64-S128"
target triple = "x86_64-pc-linux-gnu"

@.str = private unnamed_addr constant [3 x i8] c"%d\00", align 1
@.str.1 = private unnamed_addr constant [3 x i8] c"%s\00", align 1
@.str.2 = private unnamed_addr constant [4 x i8] c"%c\0A\00", align 1
@.str.3 = private unnamed_addr constant [4 x i8] c"%d\0A\00", align 1

; Function Attrs: nofree nounwind sspstrong uwtable
define dso_local i32 @main() local_unnamed_addr #0 {
  %1 = alloca [999 x i32], align 16
  %2 = alloca [999 x [26 x i8]], align 16
  %3 = alloca [125 x i32], align 16
  %4 = alloca i32, align 4
  %5 = bitcast [999 x i32]* %1 to i8*
  call void @llvm.lifetime.start.p0i8(i64 3996, i8* nonnull %5) #5
  %6 = getelementptr inbounds [999 x [26 x i8]], [999 x [26 x i8]]* %2, i64 0, i64 0, i64 0
  call void @llvm.lifetime.start.p0i8(i64 25974, i8* nonnull %6) #5
  %7 = bitcast [125 x i32]* %3 to i8*
  call void @llvm.lifetime.start.p0i8(i64 500, i8* nonnull %7) #5
  call void @llvm.memset.p0i8.i64(i8* noundef nonnull align 16 dereferenceable(500) %7, i8 0, i64 500, i1 false)
  %8 = bitcast i32* %4 to i8*
  call void @llvm.lifetime.start.p0i8(i64 4, i8* nonnull %8) #5
  %9 = call i32 (i8*, ...) @__isoc99_scanf(i8* getelementptr inbounds ([3 x i8], [3 x i8]* @.str, i64 0, i64 0), i32* nonnull %4)
  %10 = load i32, i32* %4, align 4, !tbaa !5
  %11 = icmp sgt i32 %10, 0
  br i1 %11, label %194, label %12

12:                                               ; preds = %240, %0
  %13 = getelementptr inbounds [125 x i32], [125 x i32]* %3, i64 0, i64 66
  %14 = load i32, i32* %13, align 8, !tbaa !5
  %15 = getelementptr inbounds [125 x i32], [125 x i32]* %3, i64 0, i64 65
  %16 = load i32, i32* %15, align 4, !tbaa !5
  %17 = icmp sgt i32 %14, %16
  %18 = select i1 %17, i32 66, i32 65
  %19 = getelementptr inbounds [125 x i32], [125 x i32]* %3, i64 0, i64 67
  %20 = load i32, i32* %19, align 4, !tbaa !5
  %21 = zext i32 %18 to i64
  %22 = getelementptr inbounds [125 x i32], [125 x i32]* %3, i64 0, i64 %21
  %23 = load i32, i32* %22, align 4, !tbaa !5
  %24 = icmp sgt i32 %20, %23
  %25 = select i1 %24, i32 67, i32 %18
  %26 = getelementptr inbounds [125 x i32], [125 x i32]* %3, i64 0, i64 68
  %27 = load i32, i32* %26, align 16, !tbaa !5
  %28 = zext i32 %25 to i64
  %29 = getelementptr inbounds [125 x i32], [125 x i32]* %3, i64 0, i64 %28
  %30 = load i32, i32* %29, align 4, !tbaa !5
  %31 = icmp sgt i32 %27, %30
  %32 = select i1 %31, i32 68, i32 %25
  %33 = getelementptr inbounds [125 x i32], [125 x i32]* %3, i64 0, i64 69
  %34 = load i32, i32* %33, align 4, !tbaa !5
  %35 = zext i32 %32 to i64
  %36 = getelementptr inbounds [125 x i32], [125 x i32]* %3, i64 0, i64 %35
  %37 = load i32, i32* %36, align 4, !tbaa !5
  %38 = icmp sgt i32 %34, %37
  %39 = select i1 %38, i32 69, i32 %32
  %40 = getelementptr inbounds [125 x i32], [125 x i32]* %3, i64 0, i64 70
  %41 = load i32, i32* %40, align 8, !tbaa !5
  %42 = zext i32 %39 to i64
  %43 = getelementptr inbounds [125 x i32], [125 x i32]* %3, i64 0, i64 %42
  %44 = load i32, i32* %43, align 4, !tbaa !5
  %45 = icmp sgt i32 %41, %44
  %46 = select i1 %45, i32 70, i32 %39
  %47 = getelementptr inbounds [125 x i32], [125 x i32]* %3, i64 0, i64 71
  %48 = load i32, i32* %47, align 4, !tbaa !5
  %49 = zext i32 %46 to i64
  %50 = getelementptr inbounds [125 x i32], [125 x i32]* %3, i64 0, i64 %49
  %51 = load i32, i32* %50, align 4, !tbaa !5
  %52 = icmp sgt i32 %48, %51
  %53 = select i1 %52, i32 71, i32 %46
  %54 = getelementptr inbounds [125 x i32], [125 x i32]* %3, i64 0, i64 72
  %55 = load i32, i32* %54, align 16, !tbaa !5
  %56 = zext i32 %53 to i64
  %57 = getelementptr inbounds [125 x i32], [125 x i32]* %3, i64 0, i64 %56
  %58 = load i32, i32* %57, align 4, !tbaa !5
  %59 = icmp sgt i32 %55, %58
  %60 = select i1 %59, i32 72, i32 %53
  %61 = getelementptr inbounds [125 x i32], [125 x i32]* %3, i64 0, i64 73
  %62 = load i32, i32* %61, align 4, !tbaa !5
  %63 = zext i32 %60 to i64
  %64 = getelementptr inbounds [125 x i32], [125 x i32]* %3, i64 0, i64 %63
  %65 = load i32, i32* %64, align 4, !tbaa !5
  %66 = icmp sgt i32 %62, %65
  %67 = select i1 %66, i32 73, i32 %60
  %68 = getelementptr inbounds [125 x i32], [125 x i32]* %3, i64 0, i64 74
  %69 = load i32, i32* %68, align 8, !tbaa !5
  %70 = zext i32 %67 to i64
  %71 = getelementptr inbounds [125 x i32], [125 x i32]* %3, i64 0, i64 %70
  %72 = load i32, i32* %71, align 4, !tbaa !5
  %73 = icmp sgt i32 %69, %72
  %74 = select i1 %73, i32 74, i32 %67
  %75 = getelementptr inbounds [125 x i32], [125 x i32]* %3, i64 0, i64 75
  %76 = load i32, i32* %75, align 4, !tbaa !5
  %77 = zext i32 %74 to i64
  %78 = getelementptr inbounds [125 x i32], [125 x i32]* %3, i64 0, i64 %77
  %79 = load i32, i32* %78, align 4, !tbaa !5
  %80 = icmp sgt i32 %76, %79
  %81 = select i1 %80, i32 75, i32 %74
  %82 = getelementptr inbounds [125 x i32], [125 x i32]* %3, i64 0, i64 76
  %83 = load i32, i32* %82, align 16, !tbaa !5
  %84 = zext i32 %81 to i64
  %85 = getelementptr inbounds [125 x i32], [125 x i32]* %3, i64 0, i64 %84
  %86 = load i32, i32* %85, align 4, !tbaa !5
  %87 = icmp sgt i32 %83, %86
  %88 = select i1 %87, i32 76, i32 %81
  %89 = getelementptr inbounds [125 x i32], [125 x i32]* %3, i64 0, i64 77
  %90 = load i32, i32* %89, align 4, !tbaa !5
  %91 = zext i32 %88 to i64
  %92 = getelementptr inbounds [125 x i32], [125 x i32]* %3, i64 0, i64 %91
  %93 = load i32, i32* %92, align 4, !tbaa !5
  %94 = icmp sgt i32 %90, %93
  %95 = select i1 %94, i32 77, i32 %88
  %96 = getelementptr inbounds [125 x i32], [125 x i32]* %3, i64 0, i64 78
  %97 = load i32, i32* %96, align 8, !tbaa !5
  %98 = zext i32 %95 to i64
  %99 = getelementptr inbounds [125 x i32], [125 x i32]* %3, i64 0, i64 %98
  %100 = load i32, i32* %99, align 4, !tbaa !5
  %101 = icmp sgt i32 %97, %100
  %102 = select i1 %101, i32 78, i32 %95
  %103 = getelementptr inbounds [125 x i32], [125 x i32]* %3, i64 0, i64 79
  %104 = load i32, i32* %103, align 4, !tbaa !5
  %105 = zext i32 %102 to i64
  %106 = getelementptr inbounds [125 x i32], [125 x i32]* %3, i64 0, i64 %105
  %107 = load i32, i32* %106, align 4, !tbaa !5
  %108 = icmp sgt i32 %104, %107
  %109 = select i1 %108, i32 79, i32 %102
  %110 = getelementptr inbounds [125 x i32], [125 x i32]* %3, i64 0, i64 80
  %111 = load i32, i32* %110, align 16, !tbaa !5
  %112 = zext i32 %109 to i64
  %113 = getelementptr inbounds [125 x i32], [125 x i32]* %3, i64 0, i64 %112
  %114 = load i32, i32* %113, align 4, !tbaa !5
  %115 = icmp sgt i32 %111, %114
  %116 = select i1 %115, i32 80, i32 %109
  %117 = getelementptr inbounds [125 x i32], [125 x i32]* %3, i64 0, i64 81
  %118 = load i32, i32* %117, align 4, !tbaa !5
  %119 = zext i32 %116 to i64
  %120 = getelementptr inbounds [125 x i32], [125 x i32]* %3, i64 0, i64 %119
  %121 = load i32, i32* %120, align 4, !tbaa !5
  %122 = icmp sgt i32 %118, %121
  %123 = select i1 %122, i32 81, i32 %116
  %124 = getelementptr inbounds [125 x i32], [125 x i32]* %3, i64 0, i64 82
  %125 = load i32, i32* %124, align 8, !tbaa !5
  %126 = zext i32 %123 to i64
  %127 = getelementptr inbounds [125 x i32], [125 x i32]* %3, i64 0, i64 %126
  %128 = load i32, i32* %127, align 4, !tbaa !5
  %129 = icmp sgt i32 %125, %128
  %130 = select i1 %129, i32 82, i32 %123
  %131 = getelementptr inbounds [125 x i32], [125 x i32]* %3, i64 0, i64 83
  %132 = load i32, i32* %131, align 4, !tbaa !5
  %133 = zext i32 %130 to i64
  %134 = getelementptr inbounds [125 x i32], [125 x i32]* %3, i64 0, i64 %133
  %135 = load i32, i32* %134, align 4, !tbaa !5
  %136 = icmp sgt i32 %132, %135
  %137 = select i1 %136, i32 83, i32 %130
  %138 = getelementptr inbounds [125 x i32], [125 x i32]* %3, i64 0, i64 84
  %139 = load i32, i32* %138, align 16, !tbaa !5
  %140 = zext i32 %137 to i64
  %141 = getelementptr inbounds [125 x i32], [125 x i32]* %3, i64 0, i64 %140
  %142 = load i32, i32* %141, align 4, !tbaa !5
  %143 = icmp sgt i32 %139, %142
  %144 = select i1 %143, i32 84, i32 %137
  %145 = getelementptr inbounds [125 x i32], [125 x i32]* %3, i64 0, i64 85
  %146 = load i32, i32* %145, align 4, !tbaa !5
  %147 = zext i32 %144 to i64
  %148 = getelementptr inbounds [125 x i32], [125 x i32]* %3, i64 0, i64 %147
  %149 = load i32, i32* %148, align 4, !tbaa !5
  %150 = icmp sgt i32 %146, %149
  %151 = select i1 %150, i32 85, i32 %144
  %152 = getelementptr inbounds [125 x i32], [125 x i32]* %3, i64 0, i64 86
  %153 = load i32, i32* %152, align 8, !tbaa !5
  %154 = zext i32 %151 to i64
  %155 = getelementptr inbounds [125 x i32], [125 x i32]* %3, i64 0, i64 %154
  %156 = load i32, i32* %155, align 4, !tbaa !5
  %157 = icmp sgt i32 %153, %156
  %158 = select i1 %157, i32 86, i32 %151
  %159 = getelementptr inbounds [125 x i32], [125 x i32]* %3, i64 0, i64 87
  %160 = load i32, i32* %159, align 4, !tbaa !5
  %161 = zext i32 %158 to i64
  %162 = getelementptr inbounds [125 x i32], [125 x i32]* %3, i64 0, i64 %161
  %163 = load i32, i32* %162, align 4, !tbaa !5
  %164 = icmp sgt i32 %160, %163
  %165 = select i1 %164, i32 87, i32 %158
  %166 = getelementptr inbounds [125 x i32], [125 x i32]* %3, i64 0, i64 88
  %167 = load i32, i32* %166, align 16, !tbaa !5
  %168 = zext i32 %165 to i64
  %169 = getelementptr inbounds [125 x i32], [125 x i32]* %3, i64 0, i64 %168
  %170 = load i32, i32* %169, align 4, !tbaa !5
  %171 = icmp sgt i32 %167, %170
  %172 = select i1 %171, i32 88, i32 %165
  %173 = getelementptr inbounds [125 x i32], [125 x i32]* %3, i64 0, i64 89
  %174 = load i32, i32* %173, align 4, !tbaa !5
  %175 = zext i32 %172 to i64
  %176 = getelementptr inbounds [125 x i32], [125 x i32]* %3, i64 0, i64 %175
  %177 = load i32, i32* %176, align 4, !tbaa !5
  %178 = icmp sgt i32 %174, %177
  %179 = select i1 %178, i32 89, i32 %172
  %180 = getelementptr inbounds [125 x i32], [125 x i32]* %3, i64 0, i64 90
  %181 = load i32, i32* %180, align 8, !tbaa !5
  %182 = zext i32 %179 to i64
  %183 = getelementptr inbounds [125 x i32], [125 x i32]* %3, i64 0, i64 %182
  %184 = load i32, i32* %183, align 4, !tbaa !5
  %185 = icmp sgt i32 %181, %184
  %186 = select i1 %185, i32 90, i32 %179
  %187 = call i32 (i8*, ...) @printf(i8* nonnull dereferenceable(1) getelementptr inbounds ([4 x i8], [4 x i8]* @.str.2, i64 0, i64 0), i32 %186)
  %188 = zext i32 %186 to i64
  %189 = getelementptr inbounds [125 x i32], [125 x i32]* %3, i64 0, i64 %188
  %190 = load i32, i32* %189, align 4, !tbaa !5
  %191 = call i32 (i8*, ...) @printf(i8* nonnull dereferenceable(1) getelementptr inbounds ([4 x i8], [4 x i8]* @.str.3, i64 0, i64 0), i32 %190)
  %192 = load i32, i32* %4, align 4, !tbaa !5
  %193 = icmp sgt i32 %192, 0
  br i1 %193, label %245, label %274

194:                                              ; preds = %0, %240
  %195 = phi i64 [ %241, %240 ], [ 0, %0 ]
  %196 = getelementptr inbounds [999 x i32], [999 x i32]* %1, i64 0, i64 %195
  %197 = call i32 (i8*, ...) @__isoc99_scanf(i8* getelementptr inbounds ([3 x i8], [3 x i8]* @.str, i64 0, i64 0), i32* nonnull %196)
  %198 = getelementptr inbounds [999 x [26 x i8]], [999 x [26 x i8]]* %2, i64 0, i64 %195, i64 0
  %199 = call i32 (i8*, ...) @__isoc99_scanf(i8* getelementptr inbounds ([3 x i8], [3 x i8]* @.str.1, i64 0, i64 0), i8* nonnull %198)
  %200 = call i64 @strlen(i8* noundef nonnull %198) #6
  %201 = trunc i64 %200 to i32
  %202 = add i32 %201, -1
  %203 = icmp slt i32 %202, 0
  br i1 %203, label %240, label %204

204:                                              ; preds = %194
  %205 = zext i32 %202 to i64
  %206 = add nuw nsw i64 %205, 1
  %207 = and i64 %206, 1
  %208 = icmp eq i32 %202, 0
  br i1 %208, label %230, label %209

209:                                              ; preds = %204
  %210 = and i64 %206, 8589934590
  br label %211

211:                                              ; preds = %211, %209
  %212 = phi i64 [ 0, %209 ], [ %227, %211 ]
  %213 = phi i64 [ %210, %209 ], [ %228, %211 ]
  %214 = getelementptr inbounds [999 x [26 x i8]], [999 x [26 x i8]]* %2, i64 0, i64 %195, i64 %212
  %215 = load i8, i8* %214, align 2, !tbaa !9
  %216 = sext i8 %215 to i64
  %217 = getelementptr inbounds [125 x i32], [125 x i32]* %3, i64 0, i64 %216
  %218 = load i32, i32* %217, align 4, !tbaa !5
  %219 = add nsw i32 %218, 1
  store i32 %219, i32* %217, align 4, !tbaa !5
  %220 = or i64 %212, 1
  %221 = getelementptr inbounds [999 x [26 x i8]], [999 x [26 x i8]]* %2, i64 0, i64 %195, i64 %220
  %222 = load i8, i8* %221, align 1, !tbaa !9
  %223 = sext i8 %222 to i64
  %224 = getelementptr inbounds [125 x i32], [125 x i32]* %3, i64 0, i64 %223
  %225 = load i32, i32* %224, align 4, !tbaa !5
  %226 = add nsw i32 %225, 1
  store i32 %226, i32* %224, align 4, !tbaa !5
  %227 = add nuw nsw i64 %212, 2
  %228 = add i64 %213, -2
  %229 = icmp eq i64 %228, 0
  br i1 %229, label %230, label %211, !llvm.loop !10

230:                                              ; preds = %211, %204
  %231 = phi i64 [ 0, %204 ], [ %227, %211 ]
  %232 = icmp eq i64 %207, 0
  br i1 %232, label %240, label %233

233:                                              ; preds = %230
  %234 = getelementptr inbounds [999 x [26 x i8]], [999 x [26 x i8]]* %2, i64 0, i64 %195, i64 %231
  %235 = load i8, i8* %234, align 1, !tbaa !9
  %236 = sext i8 %235 to i64
  %237 = getelementptr inbounds [125 x i32], [125 x i32]* %3, i64 0, i64 %236
  %238 = load i32, i32* %237, align 4, !tbaa !5
  %239 = add nsw i32 %238, 1
  store i32 %239, i32* %237, align 4, !tbaa !5
  br label %240

240:                                              ; preds = %233, %230, %194
  %241 = add nuw nsw i64 %195, 1
  %242 = load i32, i32* %4, align 4, !tbaa !5
  %243 = sext i32 %242 to i64
  %244 = icmp slt i64 %241, %243
  br i1 %244, label %194, label %12, !llvm.loop !12

245:                                              ; preds = %12, %269
  %246 = phi i32 [ %270, %269 ], [ %192, %12 ]
  %247 = phi i64 [ %271, %269 ], [ 0, %12 ]
  %248 = getelementptr inbounds [999 x [26 x i8]], [999 x [26 x i8]]* %2, i64 0, i64 %247, i64 0
  %249 = call i64 @strlen(i8* noundef nonnull %248) #6
  %250 = trunc i64 %249 to i32
  %251 = add i32 %250, -1
  %252 = icmp slt i32 %251, 0
  br i1 %252, label %269, label %253

253:                                              ; preds = %245
  %254 = and i64 %249, 4294967295
  br label %258

255:                                              ; preds = %258
  %256 = add nuw nsw i64 %259, 1
  %257 = icmp eq i64 %256, %254
  br i1 %257, label %269, label %258, !llvm.loop !13

258:                                              ; preds = %253, %255
  %259 = phi i64 [ 0, %253 ], [ %256, %255 ]
  %260 = getelementptr inbounds [999 x [26 x i8]], [999 x [26 x i8]]* %2, i64 0, i64 %247, i64 %259
  %261 = load i8, i8* %260, align 1, !tbaa !9
  %262 = sext i8 %261 to i32
  %263 = icmp eq i32 %186, %262
  br i1 %263, label %264, label %255

264:                                              ; preds = %258
  %265 = getelementptr inbounds [999 x i32], [999 x i32]* %1, i64 0, i64 %247
  %266 = load i32, i32* %265, align 4, !tbaa !5
  %267 = call i32 (i8*, ...) @printf(i8* nonnull dereferenceable(1) getelementptr inbounds ([4 x i8], [4 x i8]* @.str.3, i64 0, i64 0), i32 %266)
  %268 = load i32, i32* %4, align 4, !tbaa !5
  br label %269

269:                                              ; preds = %255, %245, %264
  %270 = phi i32 [ %246, %245 ], [ %268, %264 ], [ %246, %255 ]
  %271 = add nuw nsw i64 %247, 1
  %272 = sext i32 %270 to i64
  %273 = icmp slt i64 %271, %272
  br i1 %273, label %245, label %274, !llvm.loop !14

274:                                              ; preds = %269, %12
  call void @llvm.lifetime.end.p0i8(i64 4, i8* nonnull %8) #5
  call void @llvm.lifetime.end.p0i8(i64 500, i8* nonnull %7) #5
  call void @llvm.lifetime.end.p0i8(i64 25974, i8* nonnull %6) #5
  call void @llvm.lifetime.end.p0i8(i64 3996, i8* nonnull %5) #5
  ret i32 0
}

; Function Attrs: argmemonly mustprogress nofree nosync nounwind willreturn
declare void @llvm.lifetime.start.p0i8(i64 immarg, i8* nocapture) #1

; Function Attrs: argmemonly mustprogress nofree nounwind willreturn writeonly
declare void @llvm.memset.p0i8.i64(i8* nocapture writeonly, i8, i64, i1 immarg) #2

; Function Attrs: nofree nounwind
declare noundef i32 @__isoc99_scanf(i8* nocapture noundef readonly, ...) local_unnamed_addr #3

; Function Attrs: argmemonly mustprogress nofree nounwind readonly willreturn
declare i64 @strlen(i8* nocapture) local_unnamed_addr #4

; Function Attrs: nofree nounwind
declare noundef i32 @printf(i8* nocapture noundef readonly, ...) local_unnamed_addr #3

; Function Attrs: argmemonly mustprogress nofree nosync nounwind willreturn
declare void @llvm.lifetime.end.p0i8(i64 immarg, i8* nocapture) #1


!llvm.module.flags = !{!0, !1, !2, !3}
!llvm.ident = !{!4}

!0 = !{i32 1, !"wchar_size", i32 4}
!1 = !{i32 7, !"PIC Level", i32 2}
!2 = !{i32 7, !"PIE Level", i32 2}
!3 = !{i32 7, !"uwtable", i32 1}
!4 = !{!"clang version 13.0.0"}
!5 = !{!6, !6, i64 0}
!6 = !{!"int", !7, i64 0}
!7 = !{!"omnipotent char", !8, i64 0}
!8 = !{!"Simple C/C++ TBAA"}
!9 = !{!7, !7, i64 0}
!10 = distinct !{!10, !11}
!11 = !{!"llvm.loop.mustprogress"}
!12 = distinct !{!12, !11}
!13 = distinct !{!13, !11}
!14 = distinct !{!14, !11}
